target datalayout = "e-m:e-p270:32:32-p271:32:32-p272:64:64-i64:64-i128:128-f80:128-n8:16:32:64-S128"
target triple = "x86_64-unknown-linux-gnu"

%struct.redisServer = type { i32, i64, ptr, ptr, ptr, i32, i32, i32, i32, i32, ptr, ptr, ptr, ptr, ptr, ptr, i32, i32, i64, i32, i32, i32, i32, ptr, i32, i32, [41 x i8], i32, i64, i32, i32, i32, ptr, ptr, i32, i32, i64, ptr, ptr, ptr, ptr, [2 x i32], i32, i32, i32, i32, i32, [16 x ptr], i32, ptr, ptr, i32, [8 x %struct.connListener], i32, %struct.connListener, ptr, ptr, ptr, ptr, ptr, ptr, ptr, ptr, ptr, ptr, i32, ptr, i32, ptr, [3 x %struct.pause_event], [256 x i8], ptr, i64, i32, i32, i32, i32, i64, i32, i32, i32, i32, i32, i64, i64, i64, i64, i64, i64, i64, i64, i64, double, i64, i64, i64, i64, i64, i64, i64, i64, i64, i64, i64, i64, i64, i64, i64, i64, i64, i64, i64, i64, double, i64, i64, i64, i64, i64, ptr, i64, i64, i64, %struct.malloc_stats, i64, i64, i64, i64, i64, i64, i64, i64, i64, i64, i64, i64, double, [4 x i64], i64, i64, i64, i64, i64, i64, i64, i64, i64, i64, [7 x %struct.anon], i64, i64, i64, i64, i64, i64, [4 x %struct.durationStats], i32, i32, i32, i32, i32, i32, i32, i32, i32, i32, i64, i32, i32, i32, i32, i64, i64, i32, i32, i32, i32, i32, ptr, [3 x %struct.clientBufferLimitsConfig], i32, i32, ptr, i32, i32, i32, i32, ptr, ptr, i32, i32, i64, i64, i64, i64, i64, i32, i32, ptr, i32, i32, i64, i64, i64, i64, i64, i32, i32, i64, i32, i32, i32, i32, i32, i32, i32, i32, ptr, i32, i64, i64, i64, i64, ptr, i32, ptr, i32, i32, i32, i64, i64, i64, i64, i32, i32, i32, i32, i32, i32, ptr, i32, i32, ptr, i32, i32, i32, [2 x i32], i32, %struct.redisOpArray, i32, ptr, i32, ptr, i32, i32, i32, i32, i32, i32, i32, [41 x i8], [41 x i8], i64, i64, i64, i64, i32, i32, ptr, i64, i64, i64, i32, i32, i32, i32, i32, i32, i32, i64, ptr, ptr, ptr, ptr, i32, i32, ptr, ptr, i32, i32, i64, i64, i64, ptr, i32, ptr, i64, i32, i32, i32, i64, i32, i32, i32, i32, ptr, i32, i32, [41 x i8], i64, i32, ptr, i32, i32, i64, i64, i32, i32, i32, i32, i32, i64, [3 x i32], i32, i32, i32, [9 x i32], ptr, ptr, i32, i64, ptr, ptr, i32, i32, i32, i32, i64, i64, i64, i64, i64, i64, i64, i64, i64, i64, i32, i32, i64, i64, i32, i64, i64, i64, i64, i64, ptr, ptr, i32, ptr, i32, i32, i32, i64, i64, ptr, ptr, i32, i32, i32, i32, i32, ptr, ptr, ptr, i32, i32, i32, i32, i32, i32, i32, i64, i32, i64, i32, i32, i32, i32, i32, i32, i32, i64, ptr, ptr, i64, ptr, i32, %struct.aclInfo, i32, i64, i32, i32, i32, %struct.redisTLSContextConfig, ptr, ptr, ptr, ptr, ptr, i64, i32, ptr, i32, i32, i32, i64, i32, ptr }
%struct.connListener = type { [16 x i32], i32, ptr, i32, i32, ptr, ptr }
%struct.pause_event = type { i32, i64 }
%struct.malloc_stats = type { i64, i64, i64, i64, i64 }
%struct.anon = type { i64, i64, [16 x i64], i32 }
%struct.durationStats = type { i64, i64, i64 }
%struct.clientBufferLimitsConfig = type { i64, i64, i64 }
%struct.redisOpArray = type { ptr, i32, i32 }
%struct.aclInfo = type { i64, i64, i64, i64 }
%struct.redisTLSContextConfig = type { ptr, ptr, ptr, ptr, ptr, ptr, ptr, ptr, ptr, ptr, ptr, ptr, i32, i32, i32, i32 }
%struct.timeval = type { i64, i64 }
%struct.tm = type { i32, i32, i32, i32, i32, i32, i32, i32, i32, i64, ptr }

@__const.serverLogRaw.syslogLevelMap = private unnamed_addr constant [4 x i32] [i32 7, i32 6, i32 5, i32 4], align 16
@.str = private unnamed_addr constant [5 x i8] c".-*#\00", align 1
@server = dso_local global %struct.redisServer zeroinitializer, align 8
@stdout = external global ptr, align 8
@.str.1 = private unnamed_addr constant [2 x i8] c"a\00", align 1
@.str.2 = private unnamed_addr constant [3 x i8] c"%s\00", align 1
@.str.3 = private unnamed_addr constant [19 x i8] c"%d %b %Y %H:%M:%S.\00", align 1
@.str.4 = private unnamed_addr constant [5 x i8] c"%03d\00", align 1
@.str.5 = private unnamed_addr constant [16 x i8] c"%d:%c %s %c %s\0A\00", align 1
@.str.345 = private unnamed_addr constant [8 x i8] c"cluster\00", align 1
@.str.349 = private unnamed_addr constant [9 x i8] c"sentinel\00", align 1
@.str.350 = private unnamed_addr constant [11 x i8] c"standalone\00", align 1
@.str.355 = private unnamed_addr constant [12 x i8] c"255.255.255\00", align 1
@.str.422 = private unnamed_addr constant [26 x i8] c"Running mode=%s, port=%d.\00", align 1
@.str.423 = private unnamed_addr constant [3 x i8] c"64\00", align 1

; Function Attrs: nounwind uwtable
define dso_local void @serverLogRaw(i32 noundef %level, ptr noundef %msg) #0 {
entry:
  %level.addr = alloca i32, align 4
  %msg.addr = alloca ptr, align 8
  %syslogLevelMap = alloca [4 x i32], align 16
  %c = alloca ptr, align 8
  %fp = alloca ptr, align 8
  %buf = alloca [64 x i8], align 16
  %rawmode = alloca i32, align 4
  %log_to_stdout = alloca i32, align 4
  %off = alloca i32, align 4
  %tv = alloca %struct.timeval, align 8
  %role_char = alloca i32, align 4
  %pid = alloca i32, align 4
  %tm = alloca %struct.tm, align 8
  store i32 %level, ptr %level.addr, align 4
  store ptr %msg, ptr %msg.addr, align 8
  call void @llvm.memcpy.p0.p0.i64(ptr align 16 %syslogLevelMap, ptr align 16 @__const.serverLogRaw.syslogLevelMap, i64 16, i1 false)
  store ptr @.str, ptr %c, align 8
  %0 = load i32, ptr %level.addr, align 4
  %and = and i32 %0, 1024
  store i32 %and, ptr %rawmode, align 4
  %1 = load ptr, ptr getelementptr inbounds (%struct.redisServer, ptr @server, i32 0, i32 250), align 8
  %arrayidx = getelementptr inbounds i8, ptr %1, i64 0
  %2 = load i8, ptr %arrayidx, align 1
  %conv = sext i8 %2 to i32
  %cmp = icmp eq i32 %conv, 0
  %conv1 = zext i1 %cmp to i32
  store i32 %conv1, ptr %log_to_stdout, align 4
  %3 = load i32, ptr %level.addr, align 4
  %and2 = and i32 %3, 255
  store i32 %and2, ptr %level.addr, align 4
  %4 = load i32, ptr %level.addr, align 4
  %5 = load i32, ptr getelementptr inbounds (%struct.redisServer, ptr @server, i32 0, i32 156), align 8
  %cmp3 = icmp slt i32 %4, %5
  br i1 %cmp3, label %if.then, label %if.end

if.then:                                          ; preds = %entry
  br label %if.end45

if.end:                                           ; preds = %entry
  %6 = load i32, ptr %log_to_stdout, align 4
  %tobool = icmp ne i32 %6, 0
  br i1 %tobool, label %cond.true, label %cond.false

cond.true:                                        ; preds = %if.end
  %7 = load ptr, ptr @stdout, align 8
  br label %cond.end

cond.false:                                       ; preds = %if.end
  %8 = load ptr, ptr getelementptr inbounds (%struct.redisServer, ptr @server, i32 0, i32 250), align 8
  %call = call noalias ptr @fopen64(ptr noundef %8, ptr noundef @.str.1)
  br label %cond.end

cond.end:                                         ; preds = %cond.false, %cond.true
  %cond = phi ptr [ %7, %cond.true ], [ %call, %cond.false ]
  store ptr %cond, ptr %fp, align 8
  %9 = load ptr, ptr %fp, align 8
  %tobool5 = icmp ne ptr %9, null
  br i1 %tobool5, label %if.end7, label %if.then6

if.then6:                                         ; preds = %cond.end
  br label %if.end45

if.end7:                                          ; preds = %cond.end
  %10 = load i32, ptr %rawmode, align 4
  %tobool8 = icmp ne i32 %10, 0
  br i1 %tobool8, label %if.then9, label %if.else

if.then9:                                         ; preds = %if.end7
  %11 = load ptr, ptr %fp, align 8
  %12 = load ptr, ptr %msg.addr, align 8
  %call10 = call i32 (ptr, ptr, ...) @fprintf(ptr noundef %11, ptr noundef @.str.2, ptr noundef %12) #13
  br label %if.end35

if.else:                                          ; preds = %if.end7
  %call11 = call i32 @getpid() #13
  store i32 %call11, ptr %pid, align 4
  %call12 = call i32 @gettimeofday(ptr noundef %tv, ptr noundef null) #13
  %tv_sec = getelementptr inbounds %struct.timeval, ptr %tv, i32 0, i32 0
  %13 = load i64, ptr %tv_sec, align 8
  %14 = load i64, ptr getelementptr inbounds (%struct.redisServer, ptr @server, i32 0, i32 350), align 8
  %15 = load i32, ptr getelementptr inbounds (%struct.redisServer, ptr @server, i32 0, i32 351), align 8
  call void @nolocks_localtime(ptr noundef %tm, i64 noundef %13, i64 noundef %14, i32 noundef %15)
  %arraydecay = getelementptr inbounds [64 x i8], ptr %buf, i64 0, i64 0
  %call13 = call i64 @strftime(ptr noundef %arraydecay, i64 noundef 64, ptr noundef @.str.3, ptr noundef %tm) #13
  %conv14 = trunc i64 %call13 to i32
  store i32 %conv14, ptr %off, align 4
  %arraydecay15 = getelementptr inbounds [64 x i8], ptr %buf, i64 0, i64 0
  %16 = load i32, ptr %off, align 4
  %idx.ext = sext i32 %16 to i64
  %add.ptr = getelementptr inbounds i8, ptr %arraydecay15, i64 %idx.ext
  %17 = load i32, ptr %off, align 4
  %conv16 = sext i32 %17 to i64
  %sub = sub i64 64, %conv16
  %tv_usec = getelementptr inbounds %struct.timeval, ptr %tv, i32 0, i32 1
  %18 = load i64, ptr %tv_usec, align 8
  %conv17 = trunc i64 %18 to i32
  %div = sdiv i32 %conv17, 1000
  %call18 = call i32 (ptr, i64, ptr, ...) @snprintf(ptr noundef %add.ptr, i64 noundef %sub, ptr noundef @.str.4, i32 noundef %div) #13
  %19 = load i32, ptr getelementptr inbounds (%struct.redisServer, ptr @server, i32 0, i32 27), align 4
  %tobool19 = icmp ne i32 %19, 0
  br i1 %tobool19, label %if.then20, label %if.else21

if.then20:                                        ; preds = %if.else
  store i32 88, ptr %role_char, align 4
  br label %if.end29

if.else21:                                        ; preds = %if.else
  %20 = load i32, ptr %pid, align 4
  %21 = load i32, ptr @server, align 8
  %cmp22 = icmp ne i32 %20, %21
  br i1 %cmp22, label %if.then24, label %if.else25

if.then24:                                        ; preds = %if.else21
  store i32 67, ptr %role_char, align 4
  br label %if.end28

if.else25:                                        ; preds = %if.else21
  %22 = load ptr, ptr getelementptr inbounds (%struct.redisServer, ptr @server, i32 0, i32 283), align 8
  %tobool26 = icmp ne ptr %22, null
  %cond27 = select i1 %tobool26, i32 83, i32 77
  store i32 %cond27, ptr %role_char, align 4
  br label %if.end28

if.end28:                                         ; preds = %if.else25, %if.then24
  br label %if.end29

if.end29:                                         ; preds = %if.end28, %if.then20
  %23 = load ptr, ptr %fp, align 8
  %call30 = call i32 @getpid() #13
  %24 = load i32, ptr %role_char, align 4
  %arraydecay31 = getelementptr inbounds [64 x i8], ptr %buf, i64 0, i64 0
  %25 = load ptr, ptr %c, align 8
  %26 = load i32, ptr %level.addr, align 4
  %idxprom = sext i32 %26 to i64
  %arrayidx32 = getelementptr inbounds i8, ptr %25, i64 %idxprom
  %27 = load i8, ptr %arrayidx32, align 1
  %conv33 = sext i8 %27 to i32
  %28 = load ptr, ptr %msg.addr, align 8
  %call34 = call i32 (ptr, ptr, ...) @fprintf(ptr noundef %23, ptr noundef @.str.5, i32 noundef %call30, i32 noundef %24, ptr noundef %arraydecay31, i32 noundef %conv33, ptr noundef %28) #13
  br label %if.end35

if.end35:                                         ; preds = %if.end29, %if.then9
  %29 = load ptr, ptr %fp, align 8
  %call36 = call i32 @fflush(ptr noundef %29)
  %30 = load i32, ptr %log_to_stdout, align 4
  %tobool37 = icmp ne i32 %30, 0
  br i1 %tobool37, label %if.end40, label %if.then38

if.then38:                                        ; preds = %if.end35
  %31 = load ptr, ptr %fp, align 8
  %call39 = call i32 @fclose(ptr noundef %31)
  br label %if.end40

if.end40:                                         ; preds = %if.then38, %if.end35
  %32 = load i32, ptr getelementptr inbounds (%struct.redisServer, ptr @server, i32 0, i32 251), align 8
  %tobool41 = icmp ne i32 %32, 0
  br i1 %tobool41, label %if.then42, label %if.end45

if.then42:                                        ; preds = %if.end40
  %33 = load i32, ptr %level.addr, align 4
  %idxprom43 = sext i32 %33 to i64
  %arrayidx44 = getelementptr inbounds [4 x i32], ptr %syslogLevelMap, i64 0, i64 %idxprom43
  %34 = load i32, ptr %arrayidx44, align 4
  %35 = load ptr, ptr %msg.addr, align 8
  call void (i32, ptr, ...) @syslog(i32 noundef %34, ptr noundef @.str.2, ptr noundef %35)
  br label %if.end45

if.end45:                                         ; preds = %if.then42, %if.end40, %if.then6, %if.then
  ret void
}

; Function Attrs: nounwind uwtable
define dso_local void @redisAsciiArt() #0 {
entry:
  %ascii_logo = alloca ptr, align 8
  %buf = alloca ptr, align 8
  %mode = alloca ptr, align 8
  %show_logo = alloca i32, align 4
  store ptr @.str.421, ptr %ascii_logo, align 8
  %call = call noalias ptr @zmalloc(i64 noundef 16384) #18
  store ptr %call, ptr %buf, align 8
  %0 = load i32, ptr getelementptr inbounds (%struct.redisServer, ptr @server, i32 0, i32 362), align 4
  %tobool = icmp ne i32 %0, 0
  br i1 %tobool, label %if.then, label %if.else

if.then:                                          ; preds = %entry
  store ptr @.str.345, ptr %mode, align 8
  br label %if.end4

if.else:                                          ; preds = %entry
  %1 = load i32, ptr getelementptr inbounds (%struct.redisServer, ptr @server, i32 0, i32 27), align 4
  %tobool1 = icmp ne i32 %1, 0
  br i1 %tobool1, label %if.then2, label %if.else3

if.then2:                                         ; preds = %if.else
  store ptr @.str.349, ptr %mode, align 8
  br label %if.end

if.else3:                                         ; preds = %if.else
  store ptr @.str.350, ptr %mode, align 8
  br label %if.end

if.end:                                           ; preds = %if.else3, %if.then2
  br label %if.end4

if.end4:                                          ; preds = %if.end, %if.then
  %2 = load i32, ptr getelementptr inbounds (%struct.redisServer, ptr @server, i32 0, i32 251), align 8
  %tobool5 = icmp ne i32 %2, 0
  br i1 %tobool5, label %lor.rhs, label %land.lhs.true

land.lhs.true:                                    ; preds = %if.end4
  %3 = load ptr, ptr getelementptr inbounds (%struct.redisServer, ptr @server, i32 0, i32 250), align 8
  %arrayidx = getelementptr inbounds i8, ptr %3, i64 0
  %4 = load i8, ptr %arrayidx, align 1
  %conv = sext i8 %4 to i32
  %cmp = icmp eq i32 %conv, 0
  br i1 %cmp, label %land.lhs.true7, label %lor.rhs

land.lhs.true7:                                   ; preds = %land.lhs.true
  %5 = load ptr, ptr @stdout, align 8
  %call8 = call i32 @fileno(ptr noundef %5) #13
  %call9 = call i32 @isatty(i32 noundef %call8) #13
  %tobool10 = icmp ne i32 %call9, 0
  br i1 %tobool10, label %lor.end, label %lor.rhs

lor.rhs:                                          ; preds = %land.lhs.true7, %land.lhs.true, %if.end4
  %6 = load i32, ptr getelementptr inbounds (%struct.redisServer, ptr @server, i32 0, i32 29), align 8
  %tobool11 = icmp ne i32 %6, 0
  br label %lor.end

lor.end:                                          ; preds = %lor.rhs, %land.lhs.true7
  %7 = phi i1 [ true, %land.lhs.true7 ], [ %tobool11, %lor.rhs ]
  %lor.ext = zext i1 %7 to i32
  store i32 %lor.ext, ptr %show_logo, align 4
  %8 = load i32, ptr %show_logo, align 4
  %tobool12 = icmp ne i32 %8, 0
  br i1 %tobool12, label %if.else19, label %if.then13

if.then13:                                        ; preds = %lor.end
  br label %do.body

do.body:                                          ; preds = %if.then13
  %9 = load i32, ptr getelementptr inbounds (%struct.redisServer, ptr @server, i32 0, i32 156), align 8
  %cmp14 = icmp slt i32 2, %9
  br i1 %cmp14, label %if.then16, label %if.end17

if.then16:                                        ; preds = %do.body
  br label %do.end

if.end17:                                         ; preds = %do.body
  %10 = load ptr, ptr %mode, align 8
  %11 = load i32, ptr getelementptr inbounds (%struct.redisServer, ptr @server, i32 0, i32 44), align 8
  %tobool18 = icmp ne i32 %11, 0
  br i1 %tobool18, label %cond.true, label %cond.false

cond.true:                                        ; preds = %if.end17
  %12 = load i32, ptr getelementptr inbounds (%struct.redisServer, ptr @server, i32 0, i32 44), align 8
  br label %cond.end

cond.false:                                       ; preds = %if.end17
  %13 = load i32, ptr getelementptr inbounds (%struct.redisServer, ptr @server, i32 0, i32 45), align 4
  br label %cond.end

cond.end:                                         ; preds = %cond.false, %cond.true
  %cond = phi i32 [ %12, %cond.true ], [ %13, %cond.false ]
  call void (i32, ptr, ...) @_serverLog(i32 noundef 2, ptr noundef @.str.422, ptr noundef %10, i32 noundef %cond)
  br label %do.end

do.end:                                           ; preds = %cond.end, %if.then16
  br label %if.end33

if.else19:                                        ; preds = %lor.end
  %14 = load ptr, ptr %buf, align 8
  %15 = load ptr, ptr %ascii_logo, align 8
  %call20 = call ptr @redisGitSHA1()
  %call21 = call ptr @redisGitDirty()
  %call22 = call i64 @strtol(ptr noundef %call21, ptr noundef null, i32 noundef 10) #13
  %cmp23 = icmp sgt i64 %call22, 0
  %conv24 = zext i1 %cmp23 to i32
  %16 = load ptr, ptr %mode, align 8
  %17 = load i32, ptr getelementptr inbounds (%struct.redisServer, ptr @server, i32 0, i32 44), align 8
  %tobool25 = icmp ne i32 %17, 0
  br i1 %tobool25, label %cond.true26, label %cond.false27

cond.true26:                                      ; preds = %if.else19
  %18 = load i32, ptr getelementptr inbounds (%struct.redisServer, ptr @server, i32 0, i32 44), align 8
  br label %cond.end28

cond.false27:                                     ; preds = %if.else19
  %19 = load i32, ptr getelementptr inbounds (%struct.redisServer, ptr @server, i32 0, i32 45), align 4
  br label %cond.end28

cond.end28:                                       ; preds = %cond.false27, %cond.true26
  %cond29 = phi i32 [ %18, %cond.true26 ], [ %19, %cond.false27 ]
  %call30 = call i32 @getpid() #13
  %conv31 = sext i32 %call30 to i64
  %call32 = call i32 (ptr, i64, ptr, ...) @snprintf(ptr noundef %14, i64 noundef 16384, ptr noundef %15, ptr noundef @.str.355, ptr noundef %call20, i32 noundef %conv24, ptr noundef @.str.423, ptr noundef %16, i32 noundef %cond29, i64 noundef %conv31) #13
  %20 = load ptr, ptr %buf, align 8
  call void @serverLogRaw(i32 noundef 1026, ptr noundef %20)
  br label %if.end33

if.end33:                                         ; preds = %cond.end28, %do.end
  %21 = load ptr, ptr %buf, align 8
  call void @zfree(ptr noundef %21)
  ret void
}