; Function Attrs: nounwind uwtable
define dso_local void @redisAsciiArt() local_unnamed_addr #0 {
entry:
  %call = tail call noalias dereferenceable_or_null(16384) ptr @zmalloc(i64 noundef 16384) #42
  %0 = load i32, ptr getelementptr inbounds (%struct.redisServer, ptr @server, i64 0, i32 362), align 4
  %tobool.not = icmp eq i32 %0, 0
  %1 = load i32, ptr getelementptr inbounds (%struct.redisServer, ptr @server, i64 0, i32 27), align 4
  %tobool1.not = icmp eq i32 %1, 0
  %.str.350..str.349 = select i1 %tobool1.not, ptr @.str.350, ptr @.str.349
  %mode.0 = select i1 %tobool.not, ptr %.str.350..str.349, ptr @.str.345
  %2 = load i32, ptr getelementptr inbounds (%struct.redisServer, ptr @server, i64 0, i32 251), align 8
  %tobool5.not = icmp eq i32 %2, 0
  br i1 %tobool5.not, label %land.lhs.true, label %lor.rhs

land.lhs.true:                                    ; preds = %entry
  %3 = load ptr, ptr getelementptr inbounds (%struct.redisServer, ptr @server, i64 0, i32 250), align 8
  %4 = load i8, ptr %3, align 1
  %cmp = icmp eq i8 %4, 0
  br i1 %cmp, label %land.lhs.true7, label %lor.rhs

land.lhs.true7:                                   ; preds = %land.lhs.true
  %5 = load ptr, ptr @stdout, align 8
  %call8 = tail call i32 @fileno(ptr noundef %5) #38
  %call9 = tail call i32 @isatty(i32 noundef %call8) #38
  %tobool10.not = icmp ne i32 %call9, 0
  %6 = load i32, ptr getelementptr inbounds (%struct.redisServer, ptr @server, i64 0, i32 29), align 8
  %tobool11 = icmp ne i32 %6, 0
  %or.cond = select i1 %tobool10.not, i1 true, i1 %tobool11
  br i1 %or.cond, label %if.else19, label %do.body

lor.rhs:                                          ; preds = %land.lhs.true, %entry
  %.old = load i32, ptr getelementptr inbounds (%struct.redisServer, ptr @server, i64 0, i32 29), align 8
  %tobool11.old.not = icmp eq i32 %.old, 0
  br i1 %tobool11.old.not, label %do.body, label %if.else19

do.body:                                          ; preds = %land.lhs.true7, %lor.rhs
  %7 = load i32, ptr getelementptr inbounds (%struct.redisServer, ptr @server, i64 0, i32 156), align 8
  %cmp14 = icmp sgt i32 %7, 2
  br i1 %cmp14, label %if.end33, label %if.end17

if.end17:                                         ; preds = %do.body
  %8 = load i32, ptr getelementptr inbounds (%struct.redisServer, ptr @server, i64 0, i32 44), align 8
  %tobool18.not = icmp eq i32 %8, 0
  %9 = load i32, ptr getelementptr inbounds (%struct.redisServer, ptr @server, i64 0, i32 45), align 4
  %cond = select i1 %tobool18.not, i32 %9, i32 %8
  tail call void (i32, ptr, ...) @_serverLog(i32 noundef 2, ptr noundef nonnull @.str.422, ptr noundef nonnull %mode.0, i32 noundef %cond)
  br label %if.end33

if.else19:                                        ; preds = %land.lhs.true7, %lor.rhs
  %call20 = tail call ptr @redisGitSHA1() #38
  %call21 = tail call ptr @redisGitDirty() #38
  %call22 = tail call i64 @strtol(ptr nocapture noundef %call21, ptr noundef null, i32 noundef 10) #38
  %cmp23 = icmp sgt i64 %call22, 0
  %conv24 = zext i1 %cmp23 to i32
  %10 = load i32, ptr getelementptr inbounds (%struct.redisServer, ptr @server, i64 0, i32 44), align 8
  %tobool25.not = icmp eq i32 %10, 0
  %11 = load i32, ptr getelementptr inbounds (%struct.redisServer, ptr @server, i64 0, i32 45), align 4
  %cond29 = select i1 %tobool25.not, i32 %11, i32 %10
  %call30 = tail call i32 @getpid() #38
  %conv31 = sext i32 %call30 to i64
  %call32 = tail call i32 (ptr, i64, ptr, ...) @snprintf(ptr noundef nonnull dereferenceable(1) %call, i64 noundef 16384, ptr noundef nonnull @.str.421, ptr noundef nonnull @.str.355, ptr noundef %call20, i32 noundef %conv24, ptr noundef nonnull @.str.423, ptr noundef nonnull %mode.0, i32 noundef %cond29, i64 noundef %conv31) #38
  %12 = load ptr, ptr getelementptr inbounds (%struct.redisServer, ptr @server, i64 0, i32 250), align 8
  %13 = load i8, ptr %12, align 1
  %cmp.i = icmp eq i8 %13, 0
  %14 = load i32, ptr getelementptr inbounds (%struct.redisServer, ptr @server, i64 0, i32 156), align 8
  %cmp3.i = icmp sgt i32 %14, 2
  br i1 %cmp3.i, label %if.end33, label %if.end.i

if.end.i:                                         ; preds = %if.else19
  br i1 %cmp.i, label %cond.true.i, label %cond.false.i

cond.true.i:                                      ; preds = %if.end.i
  %15 = load ptr, ptr @stdout, align 8
  br label %cond.end.i

cond.false.i:                                     ; preds = %if.end.i
  %call.i = tail call noalias ptr @fopen64(ptr noundef nonnull %12, ptr noundef nonnull @.str.1)
  br label %cond.end.i

cond.end.i:                                       ; preds = %cond.false.i, %cond.true.i
  %cond.i = phi ptr [ %15, %cond.true.i ], [ %call.i, %cond.false.i ]
  %tobool5.not.i = icmp eq ptr %cond.i, null
  br i1 %tobool5.not.i, label %if.end33, label %if.end7.i

if.end7.i:                                        ; preds = %cond.end.i
  %fputs.i = tail call i32 @fputs(ptr %call, ptr nonnull %cond.i)
  %call36.i = tail call i32 @fflush(ptr noundef nonnull %cond.i)
  br i1 %cmp.i, label %if.end40.i, label %if.then38.i

if.then38.i:                                      ; preds = %if.end7.i
  %call39.i = tail call i32 @fclose(ptr noundef nonnull %cond.i)
  br label %if.end40.i

if.end40.i:                                       ; preds = %if.then38.i, %if.end7.i
  %16 = load i32, ptr getelementptr inbounds (%struct.redisServer, ptr @server, i64 0, i32 251), align 8
  %tobool41.not.i = icmp eq i32 %16, 0
  br i1 %tobool41.not.i, label %if.end33, label %if.then42.i

if.then42.i:                                      ; preds = %if.end40.i
  tail call void (i32, ptr, ...) @syslog(i32 noundef 5, ptr noundef nonnull @.str.2, ptr noundef %call) #38
  br label %if.end33

if.end33:                                         ; preds = %if.then42.i, %if.end40.i, %cond.end.i, %if.else19, %if.end17, %do.body
  tail call void @zfree(ptr noundef %call) #38
  ret void
}